
build/kernel.elf:     file format elf32-littlearm


Disassembly of section .text:

00008000 <kernel_main>:
    8000:	eaffffff 	b	8004 <kernel_main+0x4>
    8004:	e3a0d902 	mov	sp, #32768	; 0x8000
    8008:	e59f014c 	ldr	r0, [pc, #332]	; 815c <kernel_main+0x15c>
    800c:	e3a01000 	mov	r1, #0
    8010:	e5801000 	str	r1, [r0]
    8014:	e3a00096 	mov	r0, #150	; 0x96
    8018:	eb00012d 	bl	84d4 <_ZN4main5sleep17h8d9eac5257574eb9E>
    801c:	eaffffff 	b	8020 <kernel_main+0x20>
    8020:	eaffffff 	b	8024 <kernel_main+0x24>
    8024:	eaffffff 	b	8028 <kernel_main+0x28>
    8028:	eaffffff 	b	802c <kernel_main+0x2c>
    802c:	eaffffff 	b	8030 <kernel_main+0x30>
    8030:	eaffffff 	b	8034 <kernel_main+0x34>
    8034:	eaffffff 	b	8038 <kernel_main+0x38>
    8038:	e59f0120 	ldr	r0, [pc, #288]	; 8160 <kernel_main+0x160>
    803c:	e3a0153f 	mov	r1, #264241152	; 0xfc00000
    8040:	e5801000 	str	r1, [r0]
    8044:	e3a00096 	mov	r0, #150	; 0x96
    8048:	eb000121 	bl	84d4 <_ZN4main5sleep17h8d9eac5257574eb9E>
    804c:	eaffffff 	b	8050 <kernel_main+0x50>
    8050:	e59f0108 	ldr	r0, [pc, #264]	; 8160 <kernel_main+0x160>
    8054:	e3a01000 	mov	r1, #0
    8058:	e5801000 	str	r1, [r0]
    805c:	e59f0100 	ldr	r0, [pc, #256]	; 8164 <kernel_main+0x164>
    8060:	e5900000 	ldr	r0, [r0]
    8064:	e58d0024 	str	r0, [sp, #36]	; 0x24
    8068:	e58d001c 	str	r0, [sp, #28]
    806c:	eaffffff 	b	8070 <kernel_main+0x70>
    8070:	eaffffff 	b	8074 <kernel_main+0x74>
    8074:	eaffffff 	b	8078 <kernel_main+0x78>
    8078:	eaffffff 	b	807c <kernel_main+0x7c>
    807c:	eaffffff 	b	8080 <kernel_main+0x80>
    8080:	eaffffff 	b	8084 <kernel_main+0x84>
    8084:	e3a0003f 	mov	r0, #63	; 0x3f
    8088:	e38004ff 	orr	r0, r0, #-16777216	; 0xff000000
    808c:	e59d101c 	ldr	r1, [sp, #28]
    8090:	e0010000 	and	r0, r1, r0
    8094:	e58d0024 	str	r0, [sp, #36]	; 0x24
    8098:	e58d0018 	str	r0, [sp, #24]
    809c:	eaffffff 	b	80a0 <kernel_main+0xa0>
    80a0:	e59d0018 	ldr	r0, [sp, #24]
    80a4:	e38010c0 	orr	r1, r0, #192	; 0xc0
    80a8:	e58d1014 	str	r1, [sp, #20]
    80ac:	eaffffff 	b	80b0 <kernel_main+0xb0>
    80b0:	e59d0014 	ldr	r0, [sp, #20]
    80b4:	e3801c06 	orr	r1, r0, #1536	; 0x600
    80b8:	e58d1010 	str	r1, [sp, #16]
    80bc:	eaffffff 	b	80c0 <kernel_main+0xc0>
    80c0:	e59d0010 	ldr	r0, [sp, #16]
    80c4:	e3801a03 	orr	r1, r0, #12288	; 0x3000
    80c8:	e58d100c 	str	r1, [sp, #12]
    80cc:	eaffffff 	b	80d0 <kernel_main+0xd0>
    80d0:	e59d000c 	ldr	r0, [sp, #12]
    80d4:	e3801906 	orr	r1, r0, #98304	; 0x18000
    80d8:	e58d1008 	str	r1, [sp, #8]
    80dc:	eaffffff 	b	80e0 <kernel_main+0xe0>
    80e0:	e59d0008 	ldr	r0, [sp, #8]
    80e4:	e3801703 	orr	r1, r0, #786432	; 0xc0000
    80e8:	e58d1004 	str	r1, [sp, #4]
    80ec:	eaffffff 	b	80f0 <kernel_main+0xf0>
    80f0:	e59d0004 	ldr	r0, [sp, #4]
    80f4:	e3801606 	orr	r1, r0, #6291456	; 0x600000
    80f8:	e58d1024 	str	r1, [sp, #36]	; 0x24
    80fc:	e59f2060 	ldr	r2, [pc, #96]	; 8164 <kernel_main+0x164>
    8100:	e5821000 	str	r1, [r2]
    8104:	e59f105c 	ldr	r1, [pc, #92]	; 8168 <kernel_main+0x168>
    8108:	e58d1028 	str	r1, [sp, #40]	; 0x28
    810c:	e59f1058 	ldr	r1, [pc, #88]	; 816c <kernel_main+0x16c>
    8110:	e58d102c 	str	r1, [sp, #44]	; 0x2c
    8114:	eaffffff 	b	8118 <kernel_main+0x118>
    8118:	eaffffff 	b	811c <kernel_main+0x11c>
    811c:	e59d0028 	ldr	r0, [sp, #40]	; 0x28
    8120:	e3a01902 	mov	r1, #32768	; 0x8000
    8124:	e5801000 	str	r1, [r0]
    8128:	e3a00e35 	mov	r0, #848	; 0x350
    812c:	e3800903 	orr	r0, r0, #49152	; 0xc000
    8130:	eb0000e7 	bl	84d4 <_ZN4main5sleep17h8d9eac5257574eb9E>
    8134:	eaffffff 	b	8138 <kernel_main+0x138>
    8138:	eaffffff 	b	813c <kernel_main+0x13c>
    813c:	e59d002c 	ldr	r0, [sp, #44]	; 0x2c
    8140:	e3a01902 	mov	r1, #32768	; 0x8000
    8144:	e5801000 	str	r1, [r0]
    8148:	e3a00e35 	mov	r0, #848	; 0x350
    814c:	e3800903 	orr	r0, r0, #49152	; 0xc000
    8150:	eb0000df 	bl	84d4 <_ZN4main5sleep17h8d9eac5257574eb9E>
    8154:	eaffffff 	b	8158 <kernel_main+0x158>
    8158:	eaffffee 	b	8118 <kernel_main+0x118>
    815c:	20200094 	.word	0x20200094
    8160:	20200098 	.word	0x20200098
    8164:	20200008 	.word	0x20200008
    8168:	20200020 	.word	0x20200020
    816c:	2020002c 	.word	0x2020002c

Disassembly of section .text._ZN38_$LT$u32$u20$as$u20$core..ops..Add$GT$3add17hcc21c1f4ed3eafe1E:

00008170 <_ZN38_$LT$u32$u20$as$u20$core..ops..Add$GT$3add17hcc21c1f4ed3eafe1E>:
    8170:	e92d4800 	push	{fp, lr}
    8174:	e1a0b00d 	mov	fp, sp
    8178:	e24dd020 	sub	sp, sp, #32
    817c:	e1a02001 	mov	r2, r1
    8180:	e1a03000 	mov	r3, r0
    8184:	e58d0010 	str	r0, [sp, #16]
    8188:	e50b100c 	str	r1, [fp, #-12]
    818c:	e58d200c 	str	r2, [sp, #12]
    8190:	e58d3008 	str	r3, [sp, #8]
    8194:	eaffffff 	b	8198 <_ZN38_$LT$u32$u20$as$u20$core..ops..Add$GT$3add17hcc21c1f4ed3eafe1E+0x28>
    8198:	e59d0010 	ldr	r0, [sp, #16]
    819c:	e50b0008 	str	r0, [fp, #-8]
    81a0:	e51b000c 	ldr	r0, [fp, #-12]
    81a4:	e50b0004 	str	r0, [fp, #-4]
    81a8:	e51b1008 	ldr	r1, [fp, #-8]
    81ac:	e0810000 	add	r0, r1, r0
    81b0:	e3a02001 	mov	r2, #1
    81b4:	e1500001 	cmp	r0, r1
    81b8:	23a02000 	movcs	r2, #0
    81bc:	e3520000 	cmp	r2, #0
    81c0:	e58d0004 	str	r0, [sp, #4]
    81c4:	1a000004 	bne	81dc <_ZN38_$LT$u32$u20$as$u20$core..ops..Add$GT$3add17hcc21c1f4ed3eafe1E+0x6c>
    81c8:	eaffffff 	b	81cc <_ZN38_$LT$u32$u20$as$u20$core..ops..Add$GT$3add17hcc21c1f4ed3eafe1E+0x5c>
    81cc:	e59d0004 	ldr	r0, [sp, #4]
    81d0:	e1a0d00b 	mov	sp, fp
    81d4:	e8bd4800 	pop	{fp, lr}
    81d8:	e1a0f00e 	mov	pc, lr
    81dc:	e59f0000 	ldr	r0, [pc]	; 81e4 <_ZN38_$LT$u32$u20$as$u20$core..ops..Add$GT$3add17hcc21c1f4ed3eafe1E+0x74>
    81e0:	eb000117 	bl	8644 <_ZN4core9panicking5panic17h14affdc5485aa9e6E>
    81e4:	000087bc 	.word	0x000087bc

Disassembly of section .text._ZN47_$LT$u32$u20$as$u20$core..iter..range..Step$GT$7add_one17h35dfda509eace96eE:

000081e8 <_ZN47_$LT$u32$u20$as$u20$core..iter..range..Step$GT$7add_one17h35dfda509eace96eE>:
    81e8:	e92d4800 	push	{fp, lr}
    81ec:	e1a0b00d 	mov	fp, sp
    81f0:	e24dd010 	sub	sp, sp, #16
    81f4:	e1a01000 	mov	r1, r0
    81f8:	e58d0008 	str	r0, [sp, #8]
    81fc:	e58d1004 	str	r1, [sp, #4]
    8200:	eaffffff 	b	8204 <_ZN47_$LT$u32$u20$as$u20$core..iter..range..Step$GT$7add_one17h35dfda509eace96eE+0x1c>
    8204:	e59d0008 	ldr	r0, [sp, #8]
    8208:	e50b0004 	str	r0, [fp, #-4]
    820c:	e5900000 	ldr	r0, [r0]
    8210:	e3a01001 	mov	r1, #1
    8214:	ebffffd5 	bl	8170 <_ZN38_$LT$u32$u20$as$u20$core..ops..Add$GT$3add17hcc21c1f4ed3eafe1E>
    8218:	e58d0000 	str	r0, [sp]
    821c:	eaffffff 	b	8220 <_ZN47_$LT$u32$u20$as$u20$core..iter..range..Step$GT$7add_one17h35dfda509eace96eE+0x38>
    8220:	e59d0000 	ldr	r0, [sp]
    8224:	e1a0d00b 	mov	sp, fp
    8228:	e8bd4800 	pop	{fp, lr}
    822c:	e1a0f00e 	mov	pc, lr

Disassembly of section .text._ZN4core3cmp5impls55_$LT$impl$u20$core..cmp..PartialOrd$u20$for$u20$u32$GT$2lt17hd17fe4c7d9f245c7E:

00008230 <_ZN4core3cmp5impls55_$LT$impl$u20$core..cmp..PartialOrd$u20$for$u20$u32$GT$2lt17hd17fe4c7d9f245c7E>:
    8230:	e24dd018 	sub	sp, sp, #24
    8234:	e1a02001 	mov	r2, r1
    8238:	e1a03000 	mov	r3, r0
    823c:	e58d0008 	str	r0, [sp, #8]
    8240:	e58d100c 	str	r1, [sp, #12]
    8244:	e58d2004 	str	r2, [sp, #4]
    8248:	e58d3000 	str	r3, [sp]
    824c:	eaffffff 	b	8250 <_ZN4core3cmp5impls55_$LT$impl$u20$core..cmp..PartialOrd$u20$for$u20$u32$GT$2lt17hd17fe4c7d9f245c7E+0x20>
    8250:	e59d0008 	ldr	r0, [sp, #8]
    8254:	e58d0010 	str	r0, [sp, #16]
    8258:	e59d000c 	ldr	r0, [sp, #12]
    825c:	e58d0014 	str	r0, [sp, #20]
    8260:	e59d1010 	ldr	r1, [sp, #16]
    8264:	e5911000 	ldr	r1, [r1]
    8268:	e5900000 	ldr	r0, [r0]
    826c:	e3a02000 	mov	r2, #0
    8270:	e1510000 	cmp	r1, r0
    8274:	33a02001 	movcc	r2, #1
    8278:	e1a00002 	mov	r0, r2
    827c:	e28dd018 	add	sp, sp, #24
    8280:	e1a0f00e 	mov	pc, lr

Disassembly of section .text._ZN4core3mem13uninitialized17hd7b4e0856ca124e3E:

00008284 <_ZN4core3mem13uninitialized17hd7b4e0856ca124e3E>:
    8284:	e24dd008 	sub	sp, sp, #8
    8288:	eaffffff 	b	828c <_ZN4core3mem13uninitialized17hd7b4e0856ca124e3E+0x8>
    828c:	e59d0004 	ldr	r0, [sp, #4]
    8290:	e58d0000 	str	r0, [sp]
    8294:	eaffffff 	b	8298 <_ZN4core3mem13uninitialized17hd7b4e0856ca124e3E+0x14>
    8298:	e59d0000 	ldr	r0, [sp]
    829c:	e28dd008 	add	sp, sp, #8
    82a0:	e1a0f00e 	mov	pc, lr

Disassembly of section .text._ZN4core3mem4swap17h1b52b7eed56b9c56E:

000082a4 <_ZN4core3mem4swap17h1b52b7eed56b9c56E>:
    82a4:	e92d4800 	push	{fp, lr}
    82a8:	e1a0b00d 	mov	fp, sp
    82ac:	e24dd030 	sub	sp, sp, #48	; 0x30
    82b0:	e1a02001 	mov	r2, r1
    82b4:	e1a03000 	mov	r3, r0
    82b8:	e58d000c 	str	r0, [sp, #12]
    82bc:	e58d1010 	str	r1, [sp, #16]
    82c0:	e58d2008 	str	r2, [sp, #8]
    82c4:	e58d3004 	str	r3, [sp, #4]
    82c8:	eaffffff 	b	82cc <_ZN4core3mem4swap17h1b52b7eed56b9c56E+0x28>
    82cc:	e3a00000 	mov	r0, #0
    82d0:	e54b0009 	strb	r0, [fp, #-9]
    82d4:	e59d000c 	ldr	r0, [sp, #12]
    82d8:	e58d0018 	str	r0, [sp, #24]
    82dc:	e59d0010 	ldr	r0, [sp, #16]
    82e0:	e50b0014 	str	r0, [fp, #-20]
    82e4:	e3a00001 	mov	r0, #1
    82e8:	e54b0009 	strb	r0, [fp, #-9]
    82ec:	ebffffe4 	bl	8284 <_ZN4core3mem13uninitialized17hd7b4e0856ca124e3E>
    82f0:	e50b0010 	str	r0, [fp, #-16]
    82f4:	eaffffff 	b	82f8 <_ZN4core3mem4swap17h1b52b7eed56b9c56E+0x54>
    82f8:	e59d0018 	ldr	r0, [sp, #24]
    82fc:	e5900000 	ldr	r0, [r0]
    8300:	e50b0010 	str	r0, [fp, #-16]
    8304:	ea000001 	b	8310 <_ZN4core3mem4swap17h1b52b7eed56b9c56E+0x6c>
    8308:	e51b0008 	ldr	r0, [fp, #-8]
    830c:	eb0000a0 	bl	8594 <_Unwind_Resume>
    8310:	e51b0014 	ldr	r0, [fp, #-20]
    8314:	e59d1018 	ldr	r1, [sp, #24]
    8318:	e5900000 	ldr	r0, [r0]
    831c:	e5810000 	str	r0, [r1]
    8320:	eaffffff 	b	8324 <_ZN4core3mem4swap17h1b52b7eed56b9c56E+0x80>
    8324:	e51b0014 	ldr	r0, [fp, #-20]
    8328:	e51b1010 	ldr	r1, [fp, #-16]
    832c:	e5801000 	str	r1, [r0]
    8330:	eaffffff 	b	8334 <_ZN4core3mem4swap17h1b52b7eed56b9c56E+0x90>
    8334:	e3a00000 	mov	r0, #0
    8338:	e54b0009 	strb	r0, [fp, #-9]
    833c:	e51b0010 	ldr	r0, [fp, #-16]
    8340:	eb00000d 	bl	837c <_ZN4core3mem6forget17hd504e8304b4a0270E>
    8344:	eaffffff 	b	8348 <_ZN4core3mem4swap17h1b52b7eed56b9c56E+0xa4>
    8348:	e1a0d00b 	mov	sp, fp
    834c:	e8bd4800 	pop	{fp, lr}
    8350:	e1a0f00e 	mov	pc, lr
    8354:	e3a00000 	mov	r0, #0
    8358:	e54b0009 	strb	r0, [fp, #-9]
    835c:	eaffffe9 	b	8308 <_ZN4core3mem4swap17h1b52b7eed56b9c56E+0x64>
    8360:	e55b0009 	ldrb	r0, [fp, #-9]
    8364:	e3100001 	tst	r0, #1
    8368:	1afffff9 	bne	8354 <_ZN4core3mem4swap17h1b52b7eed56b9c56E+0xb0>
    836c:	eaffffe5 	b	8308 <_ZN4core3mem4swap17h1b52b7eed56b9c56E+0x64>
    8370:	e50b1004 	str	r1, [fp, #-4]
    8374:	e50b0008 	str	r0, [fp, #-8]
    8378:	eafffff8 	b	8360 <_ZN4core3mem4swap17h1b52b7eed56b9c56E+0xbc>

Disassembly of section .text._ZN4core3mem6forget17hd504e8304b4a0270E:

0000837c <_ZN4core3mem6forget17hd504e8304b4a0270E>:
    837c:	e24dd014 	sub	sp, sp, #20
    8380:	e1a01000 	mov	r1, r0
    8384:	e58d0004 	str	r0, [sp, #4]
    8388:	e58d1000 	str	r1, [sp]
    838c:	eaffffff 	b	8390 <_ZN4core3mem6forget17hd504e8304b4a0270E+0x14>
    8390:	e59d0004 	ldr	r0, [sp, #4]
    8394:	e58d0008 	str	r0, [sp, #8]
    8398:	eaffffff 	b	839c <_ZN4core3mem6forget17hd504e8304b4a0270E+0x20>
    839c:	e28dd014 	add	sp, sp, #20
    83a0:	e1a0f00e 	mov	pc, lr

Disassembly of section .text._ZN4core4iter5range86_$LT$impl$u20$core..iter..iterator..Iterator$u20$for$u20$core..ops..Range$LT$A$GT$$GT$4next17hfceeee88a0205aecE:

000083a4 <_ZN4core4iter5range86_$LT$impl$u20$core..iter..iterator..Iterator$u20$for$u20$core..ops..Range$LT$A$GT$$GT$4next17hfceeee88a0205aecE>:
    83a4:	e92d4800 	push	{fp, lr}
    83a8:	e1a0b00d 	mov	fp, sp
    83ac:	e24dd028 	sub	sp, sp, #40	; 0x28
    83b0:	e1a02001 	mov	r2, r1
    83b4:	e58d1010 	str	r1, [sp, #16]
    83b8:	e58d000c 	str	r0, [sp, #12]
    83bc:	e58d2008 	str	r2, [sp, #8]
    83c0:	eaffffff 	b	83c4 <_ZN4core4iter5range86_$LT$impl$u20$core..iter..iterator..Iterator$u20$for$u20$core..ops..Range$LT$A$GT$$GT$4next17hfceeee88a0205aecE+0x20>
    83c4:	e3a00000 	mov	r0, #0
    83c8:	e54b0009 	strb	r0, [fp, #-9]
    83cc:	e59d0010 	ldr	r0, [sp, #16]
    83d0:	e58d0014 	str	r0, [sp, #20]
    83d4:	e2801004 	add	r1, r0, #4
    83d8:	ebffff94 	bl	8230 <_ZN4core3cmp5impls55_$LT$impl$u20$core..cmp..PartialOrd$u20$for$u20$u32$GT$2lt17hd17fe4c7d9f245c7E>
    83dc:	e58d0004 	str	r0, [sp, #4]
    83e0:	eaffffff 	b	83e4 <_ZN4core4iter5range86_$LT$impl$u20$core..iter..iterator..Iterator$u20$for$u20$core..ops..Range$LT$A$GT$$GT$4next17hfceeee88a0205aecE+0x40>
    83e4:	e59d0004 	ldr	r0, [sp, #4]
    83e8:	e3100001 	tst	r0, #1
    83ec:	0a000006 	beq	840c <_ZN4core4iter5range86_$LT$impl$u20$core..iter..iterator..Iterator$u20$for$u20$core..ops..Range$LT$A$GT$$GT$4next17hfceeee88a0205aecE+0x68>
    83f0:	eaffffff 	b	83f4 <_ZN4core4iter5range86_$LT$impl$u20$core..iter..iterator..Iterator$u20$for$u20$core..ops..Range$LT$A$GT$$GT$4next17hfceeee88a0205aecE+0x50>
    83f4:	e59d0014 	ldr	r0, [sp, #20]
    83f8:	e3a01001 	mov	r1, #1
    83fc:	e54b1009 	strb	r1, [fp, #-9]
    8400:	ebffff78 	bl	81e8 <_ZN47_$LT$u32$u20$as$u20$core..iter..range..Step$GT$7add_one17h35dfda509eace96eE>
    8404:	e50b0010 	str	r0, [fp, #-16]
    8408:	ea000003 	b	841c <_ZN4core4iter5range86_$LT$impl$u20$core..iter..iterator..Iterator$u20$for$u20$core..ops..Range$LT$A$GT$$GT$4next17hfceeee88a0205aecE+0x78>
    840c:	e3a00000 	mov	r0, #0
    8410:	e59d100c 	ldr	r1, [sp, #12]
    8414:	e5810000 	str	r0, [r1]
    8418:	ea00000d 	b	8454 <_ZN4core4iter5range86_$LT$impl$u20$core..iter..iterator..Iterator$u20$for$u20$core..ops..Range$LT$A$GT$$GT$4next17hfceeee88a0205aecE+0xb0>
    841c:	e59d1014 	ldr	r1, [sp, #20]
    8420:	e24b0010 	sub	r0, fp, #16
    8424:	ebffff9e 	bl	82a4 <_ZN4core3mem4swap17h1b52b7eed56b9c56E>
    8428:	ea000001 	b	8434 <_ZN4core4iter5range86_$LT$impl$u20$core..iter..iterator..Iterator$u20$for$u20$core..ops..Range$LT$A$GT$$GT$4next17hfceeee88a0205aecE+0x90>
    842c:	e51b0008 	ldr	r0, [fp, #-8]
    8430:	eb000057 	bl	8594 <_Unwind_Resume>
    8434:	e3a00000 	mov	r0, #0
    8438:	e54b0009 	strb	r0, [fp, #-9]
    843c:	e51b0010 	ldr	r0, [fp, #-16]
    8440:	e3a01001 	mov	r1, #1
    8444:	e59d200c 	ldr	r2, [sp, #12]
    8448:	e5821000 	str	r1, [r2]
    844c:	e5820004 	str	r0, [r2, #4]
    8450:	eaffffff 	b	8454 <_ZN4core4iter5range86_$LT$impl$u20$core..iter..iterator..Iterator$u20$for$u20$core..ops..Range$LT$A$GT$$GT$4next17hfceeee88a0205aecE+0xb0>
    8454:	e1a0d00b 	mov	sp, fp
    8458:	e8bd4800 	pop	{fp, lr}
    845c:	e1a0f00e 	mov	pc, lr
    8460:	e3a00000 	mov	r0, #0
    8464:	e54b0009 	strb	r0, [fp, #-9]
    8468:	eaffffef 	b	842c <_ZN4core4iter5range86_$LT$impl$u20$core..iter..iterator..Iterator$u20$for$u20$core..ops..Range$LT$A$GT$$GT$4next17hfceeee88a0205aecE+0x88>
    846c:	e55b0009 	ldrb	r0, [fp, #-9]
    8470:	e3100001 	tst	r0, #1
    8474:	1afffff9 	bne	8460 <_ZN4core4iter5range86_$LT$impl$u20$core..iter..iterator..Iterator$u20$for$u20$core..ops..Range$LT$A$GT$$GT$4next17hfceeee88a0205aecE+0xbc>
    8478:	eaffffeb 	b	842c <_ZN4core4iter5range86_$LT$impl$u20$core..iter..iterator..Iterator$u20$for$u20$core..ops..Range$LT$A$GT$$GT$4next17hfceeee88a0205aecE+0x88>
    847c:	e50b1004 	str	r1, [fp, #-4]
    8480:	e50b0008 	str	r0, [fp, #-8]
    8484:	eafffff8 	b	846c <_ZN4core4iter5range86_$LT$impl$u20$core..iter..iterator..Iterator$u20$for$u20$core..ops..Range$LT$A$GT$$GT$4next17hfceeee88a0205aecE+0xc8>

Disassembly of section .text._ZN54_$LT$I$u20$as$u20$core..iter..traits..IntoIterator$GT$9into_iter17h9f2fc523215b1c90E:

00008488 <_ZN54_$LT$I$u20$as$u20$core..iter..traits..IntoIterator$GT$9into_iter17h9f2fc523215b1c90E>:
    8488:	e24dd018 	sub	sp, sp, #24
    848c:	e1a02001 	mov	r2, r1
    8490:	e5913000 	ldr	r3, [r1]
    8494:	e5911004 	ldr	r1, [r1, #4]
    8498:	e58d100c 	str	r1, [sp, #12]
    849c:	e58d3008 	str	r3, [sp, #8]
    84a0:	e58d0004 	str	r0, [sp, #4]
    84a4:	e58d2000 	str	r2, [sp]
    84a8:	eaffffff 	b	84ac <_ZN54_$LT$I$u20$as$u20$core..iter..traits..IntoIterator$GT$9into_iter17h9f2fc523215b1c90E+0x24>
    84ac:	e59d0008 	ldr	r0, [sp, #8]
    84b0:	e59d100c 	ldr	r1, [sp, #12]
    84b4:	e58d0010 	str	r0, [sp, #16]
    84b8:	e58d1014 	str	r1, [sp, #20]
    84bc:	e59d0010 	ldr	r0, [sp, #16]
    84c0:	e59d2004 	ldr	r2, [sp, #4]
    84c4:	e5820000 	str	r0, [r2]
    84c8:	e5821004 	str	r1, [r2, #4]
    84cc:	e28dd018 	add	sp, sp, #24
    84d0:	e1a0f00e 	mov	pc, lr

Disassembly of section .text._ZN4main5sleep17h8d9eac5257574eb9E:

000084d4 <_ZN4main5sleep17h8d9eac5257574eb9E>:
    84d4:	e92d4800 	push	{fp, lr}
    84d8:	e1a0b00d 	mov	fp, sp
    84dc:	e24dd048 	sub	sp, sp, #72	; 0x48
    84e0:	e1a01000 	mov	r1, r0
    84e4:	e58d0010 	str	r0, [sp, #16]
    84e8:	e58d100c 	str	r1, [sp, #12]
    84ec:	eaffffff 	b	84f0 <_ZN4main5sleep17h8d9eac5257574eb9E+0x1c>
    84f0:	e59d0010 	ldr	r0, [sp, #16]
    84f4:	e58d0014 	str	r0, [sp, #20]
    84f8:	e3a01001 	mov	r1, #1
    84fc:	e58d101c 	str	r1, [sp, #28]
    8500:	e58d0020 	str	r0, [sp, #32]
    8504:	e59d101c 	ldr	r1, [sp, #28]
    8508:	e50b1008 	str	r1, [fp, #-8]
    850c:	e50b0004 	str	r0, [fp, #-4]
    8510:	e24b0010 	sub	r0, fp, #16
    8514:	e24b1008 	sub	r1, fp, #8
    8518:	ebffffda 	bl	8488 <_ZN54_$LT$I$u20$as$u20$core..iter..traits..IntoIterator$GT$9into_iter17h9f2fc523215b1c90E>
    851c:	e51b0010 	ldr	r0, [fp, #-16]
    8520:	e51b100c 	ldr	r1, [fp, #-12]
    8524:	e58d0008 	str	r0, [sp, #8]
    8528:	e58d1004 	str	r1, [sp, #4]
    852c:	eaffffff 	b	8530 <_ZN4main5sleep17h8d9eac5257574eb9E+0x5c>
    8530:	e59d0008 	ldr	r0, [sp, #8]
    8534:	e58d0024 	str	r0, [sp, #36]	; 0x24
    8538:	e59d1004 	ldr	r1, [sp, #4]
    853c:	e58d1028 	str	r1, [sp, #40]	; 0x28
    8540:	eaffffff 	b	8544 <_ZN4main5sleep17h8d9eac5257574eb9E+0x70>
    8544:	e24b0018 	sub	r0, fp, #24
    8548:	e28d1024 	add	r1, sp, #36	; 0x24
    854c:	ebffff94 	bl	83a4 <_ZN4core4iter5range86_$LT$impl$u20$core..iter..iterator..Iterator$u20$for$u20$core..ops..Range$LT$A$GT$$GT$4next17hfceeee88a0205aecE>
    8550:	eaffffff 	b	8554 <_ZN4main5sleep17h8d9eac5257574eb9E+0x80>
    8554:	e51b0018 	ldr	r0, [fp, #-24]
    8558:	e3500000 	cmp	r0, #0
    855c:	0a000001 	beq	8568 <_ZN4main5sleep17h8d9eac5257574eb9E+0x94>
    8560:	eaffffff 	b	8564 <_ZN4main5sleep17h8d9eac5257574eb9E+0x90>
    8564:	eafffff6 	b	8544 <_ZN4main5sleep17h8d9eac5257574eb9E+0x70>
    8568:	e1a0d00b 	mov	sp, fp
    856c:	e8bd4800 	pop	{fp, lr}
    8570:	e1a0f00e 	mov	pc, lr

Disassembly of section .text.rust_eh_personality:

00008574 <rust_eh_personality>:
    8574:	e24dd004 	sub	sp, sp, #4
    8578:	eaffffff 	b	857c <rust_eh_personality+0x8>
    857c:	e28dd004 	add	sp, sp, #4
    8580:	e1a0f00e 	mov	pc, lr

Disassembly of section .text.__aeabi_unwind_cpp_pr0:

00008584 <__aeabi_unwind_cpp_pr0>:
    8584:	e24dd004 	sub	sp, sp, #4
    8588:	eaffffff 	b	858c <__aeabi_unwind_cpp_pr0+0x8>
    858c:	eaffffff 	b	8590 <__aeabi_unwind_cpp_pr0+0xc>
    8590:	eafffffe 	b	8590 <__aeabi_unwind_cpp_pr0+0xc>

Disassembly of section .text._Unwind_Resume:

00008594 <_Unwind_Resume>:
    8594:	e24dd004 	sub	sp, sp, #4
    8598:	eaffffff 	b	859c <_Unwind_Resume+0x8>
    859c:	eaffffff 	b	85a0 <_Unwind_Resume+0xc>
    85a0:	eafffffe 	b	85a0 <_Unwind_Resume+0xc>

Disassembly of section .text.rust_begin_unwind:

000085a4 <rust_begin_unwind>:
    85a4:	e92d4ff0 	push	{r4, r5, r6, r7, r8, r9, sl, fp, lr}
    85a8:	e24dd070 	sub	sp, sp, #112	; 0x70
    85ac:	e59dc098 	ldr	ip, [sp, #152]	; 0x98
    85b0:	e59de094 	ldr	lr, [sp, #148]	; 0x94
    85b4:	e1a04003 	mov	r4, r3
    85b8:	e1a05002 	mov	r5, r2
    85bc:	e1a06001 	mov	r6, r1
    85c0:	e1a07000 	mov	r7, r0
    85c4:	e59d80a4 	ldr	r8, [sp, #164]	; 0xa4
    85c8:	e59d90a0 	ldr	r9, [sp, #160]	; 0xa0
    85cc:	e59da09c 	ldr	sl, [sp, #156]	; 0x9c
    85d0:	e58dc03c 	str	ip, [sp, #60]	; 0x3c
    85d4:	e58de038 	str	lr, [sp, #56]	; 0x38
    85d8:	e58d3034 	str	r3, [sp, #52]	; 0x34
    85dc:	e58d2030 	str	r2, [sp, #48]	; 0x30
    85e0:	e58d102c 	str	r1, [sp, #44]	; 0x2c
    85e4:	e58d0028 	str	r0, [sp, #40]	; 0x28
    85e8:	e28d0028 	add	r0, sp, #40	; 0x28
    85ec:	e28d1010 	add	r1, sp, #16
    85f0:	e58d400c 	str	r4, [sp, #12]
    85f4:	e890581c 	ldm	r0, {r2, r3, r4, fp, ip, lr}
    85f8:	e881581c 	stm	r1, {r2, r3, r4, fp, ip, lr}
    85fc:	e58da040 	str	sl, [sp, #64]	; 0x40
    8600:	e58d9044 	str	r9, [sp, #68]	; 0x44
    8604:	e58d8048 	str	r8, [sp, #72]	; 0x48
    8608:	e58d5008 	str	r5, [sp, #8]
    860c:	e58d7004 	str	r7, [sp, #4]
    8610:	e58d6000 	str	r6, [sp]
    8614:	eaffffff 	b	8618 <rust_begin_unwind+0x74>
    8618:	e28d0010 	add	r0, sp, #16
    861c:	e28d104c 	add	r1, sp, #76	; 0x4c
    8620:	e890503c 	ldm	r0, {r2, r3, r4, r5, ip, lr}
    8624:	e881503c 	stm	r1, {r2, r3, r4, r5, ip, lr}
    8628:	e59d0040 	ldr	r0, [sp, #64]	; 0x40
    862c:	e59d1044 	ldr	r1, [sp, #68]	; 0x44
    8630:	e58d0064 	str	r0, [sp, #100]	; 0x64
    8634:	e58d1068 	str	r1, [sp, #104]	; 0x68
    8638:	e59d0048 	ldr	r0, [sp, #72]	; 0x48
    863c:	e58d006c 	str	r0, [sp, #108]	; 0x6c
    8640:	e7ffdefe 	udf	#65006	; 0xfdee

Disassembly of section .text._ZN4core9panicking5panic17h14affdc5485aa9e6E:

00008644 <_ZN4core9panicking5panic17h14affdc5485aa9e6E>:
    8644:	e92d4800 	push	{fp, lr}
    8648:	e24dd030 	sub	sp, sp, #48	; 0x30
    864c:	e890100e 	ldm	r0, {r1, r2, r3, ip}
    8650:	e5900010 	ldr	r0, [r0, #16]
    8654:	e58d101c 	str	r1, [sp, #28]
    8658:	e58d2020 	str	r2, [sp, #32]
    865c:	e59f2038 	ldr	r2, [pc, #56]	; 869c <_ZN4core9panicking5panic17h14affdc5485aa9e6E+0x58>
    8660:	e28d101c 	add	r1, sp, #28
    8664:	e58d3024 	str	r3, [sp, #36]	; 0x24
    8668:	e58dc028 	str	ip, [sp, #40]	; 0x28
    866c:	e58d002c 	str	r0, [sp, #44]	; 0x2c
    8670:	e28d0004 	add	r0, sp, #4
    8674:	e58d1004 	str	r1, [sp, #4]
    8678:	e3a01001 	mov	r1, #1
    867c:	e58d1008 	str	r1, [sp, #8]
    8680:	e3a01000 	mov	r1, #0
    8684:	e58d1010 	str	r1, [sp, #16]
    8688:	e58d100c 	str	r1, [sp, #12]
    868c:	e58d2014 	str	r2, [sp, #20]
    8690:	e58d1018 	str	r1, [sp, #24]
    8694:	e28d1024 	add	r1, sp, #36	; 0x24
    8698:	eb000000 	bl	86a0 <_ZN4core9panicking9panic_fmt17hebfd5f9629d4593cE>
    869c:	000087e8 	.word	0x000087e8

Disassembly of section .text._ZN4core9panicking9panic_fmt17hebfd5f9629d4593cE:

000086a0 <_ZN4core9panicking9panic_fmt17hebfd5f9629d4593cE>:
    86a0:	e92d4070 	push	{r4, r5, r6, lr}
    86a4:	e24dd018 	sub	sp, sp, #24
    86a8:	e2804008 	add	r4, r0, #8
    86ac:	e8905000 	ldm	r0, {ip, lr}
    86b0:	e894001c 	ldm	r4, {r2, r3, r4}
    86b4:	e5900014 	ldr	r0, [r0, #20]
    86b8:	e8910060 	ldm	r1, {r5, r6}
    86bc:	e5911008 	ldr	r1, [r1, #8]
    86c0:	e58d4000 	str	r4, [sp]
    86c4:	e98d0061 	stmib	sp, {r0, r5, r6}
    86c8:	e58d1010 	str	r1, [sp, #16]
    86cc:	e1a0000c 	mov	r0, ip
    86d0:	e1a0100e 	mov	r1, lr
    86d4:	ebffffb2 	bl	85a4 <rust_begin_unwind>
